(dp0
S'acc'
p1
(lp2
cnumpy.core.multiarray
scalar
p3
(cnumpy
dtype
p4
(S'f4'
p5
I0
I1
tp6
Rp7
(I3
S'<'
p8
NNNI-1
I-1
I0
tp9
bS'\x83Xs?'
p10
tp11
Rp12
ag3
(g7
S'\xa2Zw?'
p13
tp14
Rp15
ag3
(g7
S'\x1f7x?'
p16
tp17
Rp18
ag3
(g7
S'\xc3\xfbw?'
p19
tp20
Rp21
ag3
(g7
S'^\xa5x?'
p22
tp23
Rp24
ag3
(g7
S'jhy?'
p25
tp26
Rp27
ag3
(g7
S'\xef_y?'
p28
tp29
Rp30
ag3
(g7
S'\xb3\xc5y?'
p31
tp32
Rp33
ag3
(g7
S'\xd1\x92y?'
p34
tp35
Rp36
ag3
(g7
S'0\xa2z?'
p37
tp38
Rp39
ag3
(g7
S'\xddUz?'
p40
tp41
Rp42
ag3
(g7
S'bMz?'
p43
tp44
Rp45
ag3
(g7
S'Z2{?'
p46
tp47
Rp48
ag3
(g7
S'\xe1\xfd{?'
p49
tp50
Rp51
ag3
(g7
S'\xad~{?'
p52
tp53
Rp54
asS'loss'
p55
(lp56
g3
(g4
(S'f8'
p57
I0
I1
tp58
Rp59
(I3
S'<'
p60
NNNI-1
I-1
I0
tp61
bS'\xca\x16\xe7\x94vL\xc5?'
p62
tp63
Rp64
ag3
(g59
S',/mN\xdc\x16\xb8?'
p65
tp66
Rp67
ag3
(g59
S'\x13?\xa3\xdc\xd3c\xb5?'
p68
tp69
Rp70
ag3
(g59
S'\xb0\xbc\xb4\x91c\x9b\xb3?'
p71
tp72
Rp73
ag3
(g59
S'\x06G\xbe{m\xa3\xb2?'
p74
tp75
Rp76
ag3
(g59
S"_\x0f\x01R\x9d'\xb1?"
p77
tp78
Rp79
ag3
(g59
S'z\x9e\xe7=\x9d\t\xb1?'
p80
tp81
Rp82
ag3
(g59
S'8\xbd\xe9eO\x91\xb0?'
p83
tp84
Rp85
ag3
(g59
S'\xbb\x15}lr\xcd\xaf?'
p86
tp87
Rp88
ag3
(g59
S'\xe1\xc8w\xc2\xb0\x10\xac?'
p89
tp90
Rp91
ag3
(g59
S'\x08\x1b\x8f6\xcf\xd6\xac?'
p92
tp93
Rp94
ag3
(g59
S"\xa0Q\xe2'i#\xab?"
p95
tp96
Rp97
ag3
(g59
S'@\xd8x\x9c\x11\xae\xa6?'
p98
tp99
Rp100
ag3
(g59
S'\x986S\xa1h)\xa5?'
p101
tp102
Rp103
ag3
(g59
S'yi3\x05\xc5\xb7\xa7?'
p104
tp105
Rp106
asS'val_acc'
p107
(lp108
g3
(g7
S'T\x9eo?'
p109
tp110
Rp111
ag3
(g7
S'\xc4vo?'
p112
tp113
Rp114
ag3
(g7
S'\r\xc7p?'
p115
tp116
Rp117
ag3
(g7
S'\xff\xa9h?'
p118
tp119
Rp120
ag3
(g7
S'\xe4\xc5o?'
p121
tp122
Rp123
ag3
(g7
S'%dp?'
p124
tp125
Rp126
ag3
(g7
S'\n\xd5k?'
p127
tp128
Rp129
ag3
(g7
S'\xcd(p?'
p130
tp131
Rp132
ag3
(g7
S'\xe3Lm?'
p133
tp134
Rp135
ag3
(g7
S'\x12\x87l?'
p136
tp137
Rp138
ag3
(g7
S'/\xe4g?'
p139
tp140
Rp141
ag3
(g7
S'L\xecn?'
p142
tp143
Rp144
ag3
(g7
S'\x93\xc3m?'
p145
tp146
Rp147
ag3
(g7
S'R%m?'
p148
tp149
Rp150
ag3
(g7
S'L\xecn?'
p151
tp152
Rp153
asS'conf_mat'
p154
cnumpy.core.multiarray
_reconstruct
p155
(cnumpy
ndarray
p156
(I0
tp157
S'b'
p158
tp159
Rp160
(I1
(I2
I2
tp161
g4
(S'i4'
p162
I0
I1
tp163
Rp164
(I3
S'<'
p165
NNNI-1
I-1
I0
tp166
bI00
S'\xcb\n\x00\x00+\x00\x00\x00\xb2\x00\x00\x00I\x01\x00\x00'
p167
tp168
bsS'main_acc'
p169
F0.9332930878357983
sS'f1s0'
p170
(lp171
F0.9619389587073609
aF0.9627826086956521
aF0.9656614955551682
aF0.9488482384823849
aF0.9636426592797784
aF0.9645115952213633
aF0.9552852492718863
aF0.96424210709925
aF0.9583476764199655
aF0.9566115702479339
aF0.9471186440677966
aF0.9616918010053735
aF0.9591695501730104
aF0.9578583765112263
aF0.9615451539933878
asS'f1s1'
p172
(lp173
F0.7992424242424242
aF0.7557077625570776
aF0.7784026996625422
aF0.5817174515235457
aF0.7529411764705882
aF0.7837259100642399
aF0.6692015209125475
aF0.7704367301231803
aF0.7034313725490197
aF0.6919315403422983
aF0.5702479338842975
aF0.7421236872812136
aF0.7210401891252955
aF0.7081339712918661
aF0.7485779294653014
asS'val_loss'
p174
(lp175
g3
(g59
S'\n<g\x08\xf7\xe9\xc5?'
p176
tp177
Rp178
ag3
(g59
S'\xd8ezPA\x07\xc8?'
p179
tp180
Rp181
ag3
(g59
S'\xe1\xf5\xb2\x14\xc7;\xc9?'
p182
tp183
Rp184
ag3
(g59
S'd4\xfa\x9a\xb6\xc8\xd1?'
p185
tp186
Rp187
ag3
(g59
S'\xbd,\x8d\xcd\xe27\xc5?'
p188
tp189
Rp190
ag3
(g59
S'&\xa9\xa3zn\xbc\xc9?'
p191
tp192
Rp193
ag3
(g59
S'i\xb0e\x1c\xf7I\xd1?'
p194
tp195
Rp196
ag3
(g59
S'\xae\x0eb\x9b\xab\xa0\xc5?'
p197
tp198
Rp199
ag3
(g59
S'\xeb\xcb\xc1\x14:e\xd0?'
p200
tp201
Rp202
ag3
(g59
S'E\x91(\xe3\x8c\xd4\xd1?'
p203
tp204
Rp205
ag3
(g59
S'\xb0e\x9c\xd8\x86_\xd9?'
p206
tp207
Rp208
ag3
(g59
S'\x11\xa8\x91S\xf4\n\xcf?'
p209
tp210
Rp211
ag3
(g59
S'@\xc0\xc8\x1a\xf6c\xd3?'
p212
tp213
Rp214
ag3
(g59
S'\r\xb6\x8c\x13\xd3i\xd4?'
p215
tp216
Rp217
ag3
(g59
S'\x16\xbe\xa4,l\xc9\xd0?'
p218
tp219
Rp220
as.