(dp0
S'acc'
p1
(lp2
cnumpy.core.multiarray
scalar
p3
(cnumpy
dtype
p4
(S'f4'
p5
I0
I1
tp6
Rp7
(I3
S'<'
p8
NNNI-1
I-1
I0
tp9
bS'\xa4\x97g?'
p10
tp11
Rp12
ag3
(g7
S'\x0e\x98p?'
p13
tp14
Rp15
ag3
(g7
S'\xf0\xdcq?'
p16
tp17
Rp18
ag3
(g7
S'}8s?'
p19
tp20
Rp21
ag3
(g7
S'\xb6\x9as?'
p22
tp23
Rp24
ag3
(g7
S'\xd1ut?'
p25
tp26
Rp27
ag3
(g7
S'\xb5\xaat?'
p28
tp29
Rp30
ag3
(g7
S'&Mu?'
p31
tp32
Rp33
ag3
(g7
S'&\xb3u?'
p34
tp35
Rp36
ag3
(g7
S'\x08pv?'
p37
tp38
Rp39
asS'loss'
p40
(lp41
g3
(g4
(S'f8'
p42
I0
I1
tp43
Rp44
(I3
S'<'
p45
NNNI-1
I-1
I0
tp46
bS'\x127\x0b\xa2i\x97\xcb?'
p47
tp48
Rp49
ag3
(g44
S'rN\xbf\xcfl?\xc3?'
p50
tp51
Rp52
ag3
(g44
S'\xc6y\x01\xef\xa5\xb3\xc1?'
p53
tp54
Rp55
ag3
(g44
S'$\xa0\xd7C3(\xc0?'
p56
tp57
Rp58
ag3
(g44
S'\xb4\xfeu!\x01\x16\xbf?'
p59
tp60
Rp61
ag3
(g44
S'\xad\xc3\xdd\xc3b\x9a\xbd?'
p62
tp63
Rp64
ag3
(g44
S'{\x026\xed\xfe7\xbc?'
p65
tp66
Rp67
ag3
(g44
S'c\x92P{\x1f\x7f\xbb?'
p68
tp69
Rp70
ag3
(g44
S'\x99z\x13\x1e}\x12\xba?'
p71
tp72
Rp73
ag3
(g44
S'\xd7Y\xee\xca\xd4\xff\xb8?'
p74
tp75
Rp76
asS'val_acc'
p77
(lp78
g3
(g7
S'\x89\xadp?'
p79
tp80
Rp81
ag3
(g7
S'\xc9\xbeq?'
p82
tp83
Rp84
ag3
(g7
S'\xa2Tr?'
p85
tp86
Rp87
ag3
(g7
S'\xb1\\t?'
p88
tp89
Rp90
ag3
(g7
S'\xc3\x88t?'
p91
tp92
Rp93
ag3
(g7
S'd\x9at?'
p94
tp95
Rp96
ag3
(g7
S'5\xa3t?'
p97
tp98
Rp99
ag3
(g7
S'o9t?'
p100
tp101
Rp102
ag3
(g7
S'\xfb\x0cu?'
p103
tp104
Rp105
ag3
(g7
S'\xf3\x7ft?'
p106
tp107
Rp108
asS'conf_mat'
p109
cnumpy.core.multiarray
_reconstruct
p110
(cnumpy
ndarray
p111
(I0
tp112
S'b'
p113
tp114
Rp115
(I1
(I2
I2
tp116
g4
(S'i4'
p117
I0
I1
tp118
Rp119
(I3
S'<'
p120
NNNI-1
I-1
I0
tp121
bI00
S']\x04\x00\x00x\x00\x00\x00\xd6\x00\x00\x00`\x17\x00\x00'
p122
tp123
bsS'main_acc'
p124
F0.9550773369199731
sS'f1s0'
p125
(lp126
F0.8197650870797893
aF0.8376470588235294
aF0.8463027487417731
aF0.8639291465378421
aF0.8649087221095335
aF0.868702895676319
aF0.8674698795180723
aF0.8661971830985915
aF0.8734076433121019
aF0.8699376947040498
asS'f1s1'
p127
(lp128
F0.964115797113136
aF0.9663961038961039
aF0.9676894278505738
aF0.9727111254642338
aF0.9731559854897219
aF0.973196210219451
aF0.9733441033925686
aF0.9722267337989281
aF0.9742676808545072
aF0.9728499430986831
asS'val_loss'
p129
(lp130
g3
(g44
S"\xa2l'\x1dK\x96\xc2?"
p131
tp132
Rp133
ag3
(g44
S'\xa9C\xd9~"W\xc1?'
p134
tp135
Rp136
ag3
(g44
S'4\x8eZ\x1e\xc6F\xc0?'
p137
tp138
Rp139
ag3
(g44
S'e\x99kA8_\xbe?'
p140
tp141
Rp142
ag3
(g44
S'\x17\xf3\xc4h\xf8\n\xbd?'
p143
tp144
Rp145
ag3
(g44
S'\xb7y3{G\xef\xbc?'
p146
tp147
Rp148
ag3
(g44
S'Q)\xf0S\xe4"\xbd?'
p149
tp150
Rp151
ag3
(g44
S'\xe35\x89=\xe7\xaa\xbe?'
p152
tp153
Rp154
ag3
(g44
S'\xab$\xe5\xe3\xa3m\xbc?'
p155
tp156
Rp157
ag3
(g44
S'"\x04\x98S\x8e\x18\xbe?'
p158
tp159
Rp160
as.