(dp0
S'acc'
p1
(lp2
cnumpy.core.multiarray
scalar
p3
(cnumpy
dtype
p4
(S'f4'
p5
I0
I1
tp6
Rp7
(I3
S'<'
p8
NNNI-1
I-1
I0
tp9
bS'\xddOg?'
p10
tp11
Rp12
ag3
(g7
S'\xd5\xdfp?'
p13
tp14
Rp15
ag3
(g7
S'bMq?'
p16
tp17
Rp18
ag3
(g7
S'\xf0vq?'
p19
tp20
Rp21
ag3
(g7
S'\xb86q?'
p22
tp23
Rp24
ag3
(g7
S'b\xb3q?'
p25
tp26
Rp27
ag3
(g7
S'\x9a7r?'
p28
tp29
Rp30
ag3
(g7
S'\xd3Ur?'
p31
tp32
Rp33
ag3
(g7
S'\x0ctr?'
p34
tp35
Rp36
ag3
(g7
S'\x0c\xb8r?'
p37
tp38
Rp39
asS'loss'
p40
(lp41
g3
(g4
(S'f8'
p42
I0
I1
tp43
Rp44
(I3
S'<'
p45
NNNI-1
I-1
I0
tp46
bS'\xc4\xaa\xe3\xffB(\xcd?'
p47
tp48
Rp49
ag3
(g44
S'\xb7\x9b\xd2\x90Y\xfe\xc2?'
p50
tp51
Rp52
ag3
(g44
S'\xe2fA\xec\xdbT\xc2?'
p53
tp54
Rp55
ag3
(g44
S'G\xa6\xef\xf4\xb9\xfe\xc1?'
p56
tp57
Rp58
ag3
(g44
S'\x0b\xea\xb3\xb83\xf2\xc1?'
p59
tp60
Rp61
ag3
(g44
S'Xc=\xb0\x9af\xc1?'
p62
tp63
Rp64
ag3
(g44
S'\x1d\x10\xdfm\xff\x11\xc1?'
p65
tp66
Rp67
ag3
(g44
S'\xfa\x92\xa6\xda7\xf4\xc0?'
p68
tp69
Rp70
ag3
(g44
S']X\x97\xbc\xa2I\xc0?'
p71
tp72
Rp73
ag3
(g44
S'6N\x03H\xa8#\xc0?'
p74
tp75
Rp76
asS'val_acc'
p77
(lp78
g3
(g7
S';\xd9q?'
p79
tp80
Rp81
ag3
(g7
S'\xf9\xb5q?'
p82
tp83
Rp84
ag3
(g7
S'\x8e\x16s?'
p85
tp86
Rp87
ag3
(g7
S'^\x1fs?'
p88
tp89
Rp90
ag3
(g7
S'\xf7\xa3r?'
p91
tp92
Rp93
ag3
(g7
S'\xaa\xe1r?'
p94
tp95
Rp96
ag3
(g7
S'^\x1fs?'
p97
tp98
Rp99
ag3
(g7
S'/(s?'
p100
tp101
Rp102
ag3
(g7
S'\x12]s?'
p103
tp104
Rp105
ag3
(g7
S'h\xber?'
p106
tp107
Rp108
asS'conf_mat'
p109
cnumpy.core.multiarray
_reconstruct
p110
(cnumpy
ndarray
p111
(I0
tp112
S'b'
p113
tp114
Rp115
(I1
(I2
I2
tp116
g4
(S'i4'
p117
I0
I1
tp118
Rp119
(I3
S'<'
p120
NNNI-1
I-1
I0
tp121
bI00
S'\x02\x04\x00\x00\xd3\x00\x00\x00\xae\x00\x00\x00\x88\x17\x00\x00'
p122
tp123
bsS'main_acc'
p124
F0.9482178883658372
sS'f1s0'
p125
(lp126
F0.8185430463576159
aF0.8198002605297439
aF0.84472049689441
aF0.8431208053691275
aF0.8436744560838034
aF0.8417116742833403
aF0.8398972602739726
aF0.8475684511646915
aF0.848659793814433
aF0.8420188756668034
asS'f1s1'
p127
(lp128
F0.967393891312971
aF0.9669770032625129
aF0.9698916097952629
aF0.9700464520262694
aF0.9686793671294801
aF0.9694295113536067
aF0.9701611616403383
aF0.9699750462851163
aF0.9705102450783447
aF0.9690340223598488
asS'val_loss'
p129
(lp130
g3
(g44
S'\x07J\x0e\xbb<\xc1\xc1?'
p131
tp132
Rp133
ag3
(g44
S'.Y\xe6\x82\x91\xcb\xc1?'
p134
tp135
Rp136
ag3
(g44
S'\x13A\x9a\xc0\xa6\xe3\xc0?'
p137
tp138
Rp139
ag3
(g44
S'Z\xfb\xf4\xa7\xc3\xa3\xc0?'
p140
tp141
Rp142
ag3
(g44
S'\xdac\x84a]\xb9\xc0?'
p143
tp144
Rp145
ag3
(g44
S'\xecK\t&\x82\x9b\xc0?'
p146
tp147
Rp148
ag3
(g44
S'<\xed\x02Q\xe1\xb0\xc0?'
p149
tp150
Rp151
ag3
(g44
S'q\x90\xf7\xdep\xfb\xc0?'
p152
tp153
Rp154
ag3
(g44
S'|\xd0\xab\x06\x13\xa4\xc0?'
p155
tp156
Rp157
ag3
(g44
S'\x0c\xb3\x10\xf1\xa18\xc2?'
p158
tp159
Rp160
as.