(dp0
S'acc'
p1
(lp2
cnumpy.core.multiarray
scalar
p3
(cnumpy
dtype
p4
(S'f4'
p5
I0
I1
tp6
Rp7
(I3
S'<'
p8
NNNI-1
I-1
I0
tp9
bS'\x9f\xc5l?'
p10
tp11
Rp12
ag3
(g7
S'\x9b\xafq?'
p13
tp14
Rp15
ag3
(g7
S'E\xb4r?'
p16
tp17
Rp18
ag3
(g7
S'\xb6xs?'
p19
tp20
Rp21
ag3
(g7
S"'_t?"
p22
tp23
Rp24
ag3
(g7
S'\x99Wt?'
p25
tp26
Rp27
ag3
(g7
S'\n\x1cu?'
p28
tp29
Rp30
ag3
(g7
S'\xedru?'
p31
tp32
Rp33
ag3
(g7
S'\t\xa4u?'
p34
tp35
Rp36
ag3
(g7
S'\x97\xcdu?'
p37
tp38
Rp39
asS'loss'
p40
(lp41
g3
(g4
(S'f8'
p42
I0
I1
tp43
Rp44
(I3
S'<'
p45
NNNI-1
I-1
I0
tp46
bS'\xc1t\xa6\xfcM\x12\xc8?'
p47
tp48
Rp49
ag3
(g44
S'\xe4\xf0\xff`\xe4\xbe\xc1?'
p50
tp51
Rp52
ag3
(g44
S'\xa3t\xc80\xaa\xb6\xc0?'
p53
tp54
Rp55
ag3
(g44
S'\xc4wC\xea\x03\x02\xc0?'
p56
tp57
Rp58
ag3
(g44
S'\xbf-\x89boO\xbe?'
p59
tp60
Rp61
ag3
(g44
S'\x0cA\xd2?f-\xbd?'
p62
tp63
Rp64
ag3
(g44
S'\x88f\xa7B\xe0\xc7\xbb?'
p65
tp66
Rp67
ag3
(g44
S'\x7f~\xb1\xe1\xe3(\xbb?'
p68
tp69
Rp70
ag3
(g44
S'%\xd4Vi4t\xba?'
p71
tp72
Rp73
ag3
(g44
S'a\xc32_\t \xba?'
p74
tp75
Rp76
asS'val_acc'
p77
(lp78
g3
(g7
S'M\x05r?'
p79
tp80
Rp81
ag3
(g7
S'\xe6\x89q?'
p82
tp83
Rp84
ag3
(g7
S'\xe2es?'
p85
tp86
Rp87
ag3
(g7
S'\xb1\\t?'
p88
tp89
Rp90
ag3
(g7
S'\xa6\xbdt?'
p91
tp92
Rp93
ag3
(g7
S'-\x16t?'
p94
tp95
Rp96
ag3
(g7
S'\xa6\xbdt?'
p97
tp98
Rp99
ag3
(g7
S'\xafJu?'
p100
tp101
Rp102
ag3
(g7
S'\xe8\xe0t?'
p103
tp104
Rp105
ag3
(g7
S'\x9c\x1eu?'
p106
tp107
Rp108
asS'conf_mat'
p109
cnumpy.core.multiarray
_reconstruct
p110
(cnumpy
ndarray
p111
(I0
tp112
S'b'
p113
tp114
Rp115
(I1
(I2
I2
tp116
g4
(S'i4'
p117
I0
I1
tp118
Rp119
(I3
S'<'
p120
NNNI-1
I-1
I0
tp121
bI00
S'J\x04\x00\x00\x8b\x00\x00\x00\xb1\x00\x00\x00\x85\x17\x00\x00'
p122
tp123
bsS'main_acc'
p124
F0.9574983187626093
sS'f1s0'
p125
(lp126
F0.8404088050314465
aF0.8352941176470589
aF0.8549920760697306
aF0.8621533442088092
aF0.8665850673194615
aF0.8662026295436969
aF0.867450344548034
aF0.8718582612278534
aF0.8725838264299802
aF0.8742038216560509
asS'f1s1'
p127
(lp128
F0.9670614960246633
aF0.9659090909090909
aF0.9703547707759598
aF0.972781446287647
aF0.9736693775666317
aF0.9718332790621947
aF0.9736354107877127
aF0.9750060274853332
aF0.9738143494122415
aF0.974429519339699
asS'val_loss'
p129
(lp130
g3
(g44
S'\xbdj,\xc6R\x80\xc1?'
p131
tp132
Rp133
ag3
(g44
S'\x1dW\x1a\xe1\x95\x93\xc1?'
p134
tp135
Rp136
ag3
(g44
S'\r\xddD \x1eu\xbe?'
p137
tp138
Rp139
ag3
(g44
S'\xd3\xea\x94\x83\xdf<\xbd?'
p140
tp141
Rp142
ag3
(g44
S'<z\xa6\xd7\x14\x1e\xbc?'
p143
tp144
Rp145
ag3
(g44
S"\x9e\x03%'\x92n\xbd?"
p146
tp147
Rp148
ag3
(g44
S'\xf9\xb5\xf1\x94,0\xbc?'
p149
tp150
Rp151
ag3
(g44
S'\x05\xad}X\xfe;\xba?'
p152
tp153
Rp154
ag3
(g44
S's\xba+\xae.\xd7\xbc?'
p155
tp156
Rp157
ag3
(g44
S'\xabS\xc6hVI\xbd?'
p158
tp159
Rp160
as.