(dp0
S'acc'
p1
(lp2
cnumpy.core.multiarray
scalar
p3
(cnumpy
dtype
p4
(S'f4'
p5
I0
I1
tp6
Rp7
(I3
S'<'
p8
NNNI-1
I-1
I0
tp9
bS'\xfc\x8cr?'
p10
tp11
Rp12
ag3
(g7
S'\xcbK{?'
p13
tp14
Rp15
ag3
(g7
S'6\x1e}?'
p16
tp17
Rp18
ag3
(g7
S'\xa77}?'
p19
tp20
Rp21
ag3
(g7
S'\x9dH}?'
p22
tp23
Rp24
ag3
(g7
S'B\xe1}?'
p25
tp26
Rp27
ag3
(g7
S'\xbd\xe9}?'
p28
tp29
Rp30
ag3
(g7
S'\xe5\xa5}?'
p31
tp32
Rp33
ag3
(g7
S'`\xae}?'
p34
tp35
Rp36
ag3
(g7
S'\x9dH}?'
p37
tp38
Rp39
asS'loss'
p40
(lp41
g3
(g4
(S'f8'
p42
I0
I1
tp43
Rp44
(I3
S'<'
p45
NNNI-1
I-1
I0
tp46
bS'\xf5\xdb\xeb\xf2\xcb\xcb\xc8?'
p47
tp48
Rp49
ag3
(g44
S'\xa77\xbd\x96*\x1d\xa9?'
p50
tp51
Rp52
ag3
(g44
S'\xfb\xedu\x95\xb2\xeb\xa0?'
p53
tp54
Rp55
ag3
(g44
S'\xad\xb3\xefxEc\xa0?'
p56
tp57
Rp58
ag3
(g44
S'\xa3\xc4\xcf\x97\x8f~\x9d?'
p59
tp60
Rp61
ag3
(g44
S'*\x90\x10\xe5\x89\xb9\x99?'
p62
tp63
Rp64
ag3
(g44
S'\x85\xf7/\xd3\x1d\xb8\x9c?'
p65
tp66
Rp67
ag3
(g44
S'Aw\x15U\xdd/\x9b?'
p68
tp69
Rp70
ag3
(g44
S'`\xae\x1d9o\xc5\x99?'
p71
tp72
Rp73
ag3
(g44
S'G\xbe\x13\x18\x1e\xae\x9d?'
p74
tp75
Rp76
asS'val_acc'
p77
(lp78
g3
(g7
S' \xa4t?'
p79
tp80
Rp81
ag3
(g7
S',Hz?'
p82
tp83
Rp84
ag3
(g7
S'\x1b\xe4x?'
p85
tp86
Rp87
ag3
(g7
S'\x03Gy?'
p88
tp89
Rp90
ag3
(g7
S'\x9a\xa7w?'
p91
tp92
Rp93
ag3
(g7
S'\x1b\xe4x?'
p94
tp95
Rp96
ag3
(g7
S'\x14\xabz?'
p97
tp98
Rp99
ag3
(g7
S'\xd4\x0cz?'
p100
tp101
Rp102
ag3
(g7
S'\x14\xabz?'
p103
tp104
Rp105
ag3
(g7
S'\x03Gy?'
p106
tp107
Rp108
asS'conf_mat'
p109
cnumpy.core.multiarray
_reconstruct
p110
(cnumpy
ndarray
p111
(I0
tp112
S'b'
p113
tp114
Rp115
(I1
(I2
I2
tp116
g4
(S'i4'
p117
I0
I1
tp118
Rp119
(I3
S'<'
p120
NNNI-1
I-1
I0
tp121
bI00
S'\xeb\n\x00\x00\x0b\x00\x00\x00L\x00\x00\x00\xaf\x01\x00\x00'
p122
tp123
bsS'main_acc'
p124
F0.9737398128584365
sS'f1s0'
p125
(lp126
F0.9744125326370757
aF0.9869072894550601
aF0.9838085181274199
aF0.9846750044037343
aF0.98105927744651
aF0.9838199085473092
aF0.9877897717218191
aF0.9863933557165577
aF0.9877984084880637
aF0.9846750044037343
asS'f1s1'
p127
(lp128
F0.8331441543700341
aF0.9240246406570842
aF0.902542372881356
aF0.9083245521601686
aF0.8831168831168831
aF0.902127659574468
aF0.9292307692307692
aF0.9203722854188211
aF0.9289392378990731
aF0.9083245521601686
asS'val_loss'
p129
(lp130
g3
(g44
S'\x96\n\xe7\x1a\xa6\x8a\xc1?'
p131
tp132
Rp133
ag3
(g44
S'\xbaK\xec\xc6~\xb9\xb0?'
p134
tp135
Rp136
ag3
(g44
S'-\xc0\xd9\x0e\x98.\xb4?'
p137
tp138
Rp139
ag3
(g44
S'\xd5\x1e\x81\x91\xce\xa5\xb3?'
p140
tp141
Rp142
ag3
(g44
S'\x87\x0e\x84\xcb\xe8\x1e\xb9?'
p143
tp144
Rp145
ag3
(g44
S'Ne\xf1\x8e\xcd\x91\xbe?'
p146
tp147
Rp148
ag3
(g44
S't\xa8<\xbd\xc9\xbd\xb9?'
p149
tp150
Rp151
ag3
(g44
S'Q\xce\xb2jR\xe9\xb2?'
p152
tp153
Rp154
ag3
(g44
S'R\xbeq\xd8\xfb\xc5\xb4?'
p155
tp156
Rp157
ag3
(g44
S'\xe8\xb7\xf4a\xde\x18\xb7?'
p158
tp159
Rp160
as.