(dp0
S'acc'
p1
(lp2
cnumpy.core.multiarray
scalar
p3
(cnumpy
dtype
p4
(S'f4'
p5
I0
I1
tp6
Rp7
(I3
S'<'
p8
NNNI-1
I-1
I0
tp9
bS'\x02\xd4p?'
p10
tp11
Rp12
ag3
(g7
S'h\xc9|?'
p13
tp14
Rp15
ag3
(g7
S'\xd1\xc7}?'
p16
tp17
Rp18
ag3
(g7
S'\xe5\xa5}?'
p19
tp20
Rp21
ag3
(g7
S'\xe5\xa5}?'
p22
tp23
Rp24
ag3
(g7
S'\xb3\xfa}?'
p25
tp26
Rp27
ag3
(g7
S'\x1a%~?'
p28
tp29
Rp30
ag3
(g7
S'$\x14~?'
p31
tp32
Rp33
ag3
(g7
S'\x8b>~?'
p34
tp35
Rp36
ag3
(g7
S'\xfcW~?'
p37
tp38
Rp39
asS'loss'
p40
(lp41
g3
(g4
(S'f8'
p42
I0
I1
tp43
Rp44
(I3
S'<'
p45
NNNI-1
I-1
I0
tp46
bS'\xbav\x18\x80{A\xc0?'
p47
tp48
Rp49
ag3
(g44
S'qN^\x0bp\x9c\xa1?'
p50
tp51
Rp52
ag3
(g44
S'UU\xa50wg\x9a?'
p53
tp54
Rp55
ag3
(g44
S';\x90\xfa\xff\xe3\xdc\x98?'
p56
tp57
Rp58
ag3
(g44
S'\xb0\xb1\xc2K\xef&\x96?'
p59
tp60
Rp61
ag3
(g44
S'I]{\x94l\x83\x96?'
p62
tp63
Rp64
ag3
(g44
S'/}\x08\xad\x0ew\x95?'
p65
tp66
Rp67
ag3
(g44
S'\xad\xa3J!\t\xa6\x94?'
p68
tp69
Rp70
ag3
(g44
S'\x97x-\x1c^\x95\x93?'
p71
tp72
Rp73
ag3
(g44
S'/!\x84\xe2{)\x92?'
p74
tp75
Rp76
asS'val_acc'
p77
(lp78
g3
(g7
S'\x1b\xe4x?'
p79
tp80
Rp81
ag3
(g7
S'\xd4\x0cz?'
p82
tp83
Rp84
ag3
(g7
S'\x95\xe7{?'
p85
tp86
Rp87
ag3
(g7
S'\xfc\r{?'
p88
tp89
Rp90
ag3
(g7
S'\x8d5{?'
p91
tp92
Rp93
ag3
(g7
S'\xc5!{?'
p94
tp95
Rp96
ag3
(g7
S'4\xfaz?'
p97
tp98
Rp99
ag3
(g7
S'#\x96y?'
p100
tp101
Rp102
ag3
(g7
S'\x95\xe7{?'
p103
tp104
Rp105
ag3
(g7
S'%\x0f|?'
p106
tp107
Rp108
asS'conf_mat'
p109
cnumpy.core.multiarray
_reconstruct
p110
(cnumpy
ndarray
p111
(I0
tp112
S'b'
p113
tp114
Rp115
(I1
(I2
I2
tp116
g4
(S'i4'
p117
I0
I1
tp118
Rp119
(I3
S'<'
p120
NNNI-1
I-1
I0
tp121
bI00
S'\xe1\n\x00\x00\x15\x00\x00\x00\x1e\x00\x00\x00\xdd\x01\x00\x00'
p122
tp123
bsS'main_acc'
p124
F0.9846060971928765
sS'f1s0'
p125
(lp126
F0.9837856891082128
aF0.9864173575586523
aF0.9905744264627423
aF0.9886765746638358
aF0.9890265486725663
aF0.9888594164456234
aF0.9885016805236158
aF0.9853847508364149
aF0.990587817439176
aF0.9909268813378402
asS'f1s1'
p127
(lp128
F0.9033613445378151
aF0.9195402298850575
aF0.9471585244267199
aF0.9342915811088296
aF0.9364754098360656
aF0.9351184346035015
aF0.9331963001027749
aF0.9123548046462513
aF0.9467336683417086
aF0.9492537313432836
asS'val_loss'
p129
(lp130
g3
(g44
S'\x9b\x1f\xd7:\xe9?\xbc?'
p131
tp132
Rp133
ag3
(g44
S'\x8e\x9d\xd9\x8f\xe0\x84\xb4?'
p134
tp135
Rp136
ag3
(g44
S'\xf6\xe5\xe0\xc0\xb9J\xb0?'
p137
tp138
Rp139
ag3
(g44
S'\x1d\xb3"\xa4t\xcb\xb3?'
p140
tp141
Rp142
ag3
(g44
S'/\xc2\x1f\xa3\xb1X\xb1?'
p143
tp144
Rp145
ag3
(g44
S'4`7:\xc7\xf9\xb3?'
p146
tp147
Rp148
ag3
(g44
S'Q\x9bf\xac\xcd\x1a\xb1?'
p149
tp150
Rp151
ag3
(g44
S'1\x80%^I\xc8\xb6?'
p152
tp153
Rp154
ag3
(g44
S'\xe8Q<\xe4\x19\x80\xb0?'
p155
tp156
Rp157
ag3
(g44
S'\x8c\x01\xe6\x8eQ\xb4\xb5?'
p158
tp159
Rp160
as.